target datalayout = "e-m:e-p270:32:32-p271:32:32-p272:64:64-i64:64-i128:128-f80:128-n8:16:32:64-S128"
target triple = "x86_64-pc-linux-gnu"

%"class.llvm::Pass.base" = type <{ ptr, ptr, ptr, i32 }>
%"class.std::__cxx11::basic_string" = type { %"struct.std::__cxx11::basic_string<char>::_Alloc_hider", i64, %union.anon }
%"struct.std::__cxx11::basic_string<char>::_Alloc_hider" = type { ptr }
%union.anon = type { i64, [8 x i8] }
%"class.(anonymous namespace)::PrintRegionPass" = type { %"class.llvm::RegionPass.base", %"class.std::__cxx11::basic_string", ptr }
%"class.llvm::RegionPass.base" = type { %"class.llvm::Pass.base" }
%"class.llvm::Pass" = type <{ ptr, ptr, ptr, i32, [4 x i8] }>

@_ZTVN4llvm4PassE = external unnamed_addr constant { [19 x ptr] }, align 8
@_ZN12_GLOBAL__N_115PrintRegionPass2IDE = internal global i8 0, align 1

; Function Attrs: mustprogress nounwind uwtable
define linkonce_odr hidden void @_ZN4llvm4PassC2ENS_8PassKindERc(ptr noundef nonnull align 8 dereferenceable(28) %0, i32 noundef %1, ptr noundef nonnull align 1 dereferenceable(1) %2) unnamed_addr #0 comdat align 2 {
  %4 = alloca ptr, align 8
  %5 = alloca i32, align 4
  %6 = alloca ptr, align 8
  store ptr %0, ptr %4, align 8
  store i32 %1, ptr %5, align 4
  store ptr %2, ptr %6, align 8
  %7 = load ptr, ptr %4, align 8
  store ptr getelementptr inbounds inrange(-16, 136) ({ [19 x ptr] }, ptr @_ZTVN4llvm4PassE, i32 0, i32 0, i32 2), ptr %7, align 8
  %8 = getelementptr inbounds nuw %"class.llvm::Pass", ptr %7, i32 0, i32 1
  store ptr null, ptr %8, align 8
  %9 = getelementptr inbounds nuw %"class.llvm::Pass", ptr %7, i32 0, i32 2
  %10 = load ptr, ptr %6, align 8
  store ptr %10, ptr %9, align 8
  %11 = getelementptr inbounds nuw %"class.llvm::Pass", ptr %7, i32 0, i32 3
  %12 = load i32, ptr %5, align 4
  store i32 %12, ptr %11, align 8
  ret void
}

; Function Attrs: mustprogress nounwind uwtable
define linkonce_odr hidden void @_ZN4llvm10RegionPassC2ERc(ptr noundef nonnull align 8 dereferenceable(28) %0, ptr noundef nonnull align 1 dereferenceable(1) %1) unnamed_addr #0 comdat align 2 {
  %3 = alloca ptr, align 8
  %4 = alloca ptr, align 8
  store ptr %0, ptr %3, align 8
  store ptr %1, ptr %4, align 8
  %5 = load ptr, ptr %3, align 8
  %6 = load ptr, ptr %4, align 8
  call void @_ZN4llvm4PassC2ENS_8PassKindERc(ptr noundef nonnull align 8 dereferenceable(28) %5, i32 noundef 0, ptr noundef nonnull align 1 dereferenceable(1) %6)
  store ptr getelementptr inbounds inrange(-16, 160) ({ [22 x ptr] }, ptr @_ZTVN4llvm10RegionPassE, i32 0, i32 0, i32 2), ptr %5, align 8
  ret void
}

; Function Attrs: mustprogress nounwind uwtable
define internal void @_ZN12_GLOBAL__N_115PrintRegionPassC2ERKNSt7__cxx1112basic_stringIcSt11char_traitsIcESaIcEEERN4llvm11raw_ostreamE(ptr noundef nonnull align 8 dereferenceable(72) %0, ptr noundef nonnull align 8 dereferenceable(32) %1, ptr noundef nonnull align 8 dereferenceable(48) %2) unnamed_addr #0 align 2 {
  %4 = alloca ptr, align 8
  %5 = alloca ptr, align 8
  %6 = alloca ptr, align 8
  store ptr %0, ptr %4, align 8
  store ptr %1, ptr %5, align 8
  store ptr %2, ptr %6, align 8
  %7 = load ptr, ptr %4, align 8
  call void @_ZN4llvm10RegionPassC2ERc(ptr noundef nonnull align 8 dereferenceable(28) %7, ptr noundef nonnull align 1 dereferenceable(1) @_ZN12_GLOBAL__N_115PrintRegionPass2IDE)
  store ptr getelementptr inbounds inrange(-16, 160) ({ [22 x ptr] }, ptr @_ZTVN12_GLOBAL__N_115PrintRegionPassE, i32 0, i32 0, i32 2), ptr %7, align 8
  %8 = getelementptr inbounds nuw %"class.(anonymous namespace)::PrintRegionPass", ptr %7, i32 0, i32 1
  %9 = load ptr, ptr %5, align 8
  call void @_ZNSt7__cxx1112basic_stringIcSt11char_traitsIcESaIcEEC1ERKS4_(ptr noundef nonnull align 8 dereferenceable(32) %8, ptr noundef nonnull align 8 dereferenceable(32) %9)
  %10 = getelementptr inbounds nuw %"class.(anonymous namespace)::PrintRegionPass", ptr %7, i32 0, i32 2
  %11 = load ptr, ptr %6, align 8
  store ptr %11, ptr %10, align 8
  ret void
}

; Function Attrs: mustprogress nounwind uwtable
define dso_local noundef ptr @_ZNK4llvm10RegionPass17createPrinterPassERNS_11raw_ostreamERKNSt7__cxx1112basic_stringIcSt11char_traitsIcESaIcEEE(ptr noundef nonnull align 8 dereferenceable(28) %0, ptr noundef nonnull align 8 dereferenceable(48) %1, ptr noundef nonnull align 8 dereferenceable(32) %2) unnamed_addr #0 align 2 {
  %4 = alloca ptr, align 8
  %5 = alloca ptr, align 8
  %6 = alloca ptr, align 8
  store ptr %0, ptr %4, align 8
  store ptr %1, ptr %5, align 8
  store ptr %2, ptr %6, align 8
  %7 = call noalias noundef nonnull ptr @_Znwm(i64 noundef 72) #14
  %8 = load ptr, ptr %6, align 8
  %9 = load ptr, ptr %5, align 8
  call void @_ZN12_GLOBAL__N_115PrintRegionPassC2ERKNSt7__cxx1112basic_stringIcSt11char_traitsIcESaIcEEERN4llvm11raw_ostreamE(ptr noundef nonnull align 8 dereferenceable(72) %7, ptr noundef nonnull align 8 dereferenceable(32) %8, ptr noundef nonnull align 8 dereferenceable(48) %9)
  ret ptr %7
}