; Function Attrs: mustprogress nounwind uwtable
define dso_local noundef nonnull ptr @_ZNK4llvm10RegionPass17createPrinterPassERNS_11raw_ostreamERKNSt7__cxx1112basic_stringIcSt11char_traitsIcESaIcEEE(ptr nocapture nonnull readnone align 8 %0, ptr noundef nonnull align 8 dereferenceable(48) %1, ptr noundef nonnull align 8 dereferenceable(32) %2) unnamed_addr #0 align 2 {
  %4 = tail call noalias noundef nonnull dereferenceable(72) ptr @_Znwm(i64 noundef 72) #20
  %5 = getelementptr inbounds nuw i8, ptr %4, i64 8
  store ptr null, ptr %5, align 8
  %6 = getelementptr inbounds nuw i8, ptr %4, i64 16
  store ptr @_ZN12_GLOBAL__N_115PrintRegionPass2IDE, ptr %6, align 8
  %7 = getelementptr inbounds nuw i8, ptr %4, i64 24
  store i32 0, ptr %7, align 8
  store ptr getelementptr inbounds inrange(-16, 160) (i8, ptr @_ZTVN12_GLOBAL__N_115PrintRegionPassE, i64 16), ptr %4, align 8
  %8 = getelementptr inbounds nuw i8, ptr %4, i64 32
  tail call void @_ZNSt7__cxx1112basic_stringIcSt11char_traitsIcESaIcEEC1ERKS4_(ptr noundef nonnull align 8 dereferenceable(32) %8, ptr noundef nonnull align 8 dereferenceable(32) %2) #19
  %9 = getelementptr inbounds nuw i8, ptr %4, i64 64
  store ptr %1, ptr %9, align 8
  ret ptr %4
}